target datalayout = "e-m:e-p270:32:32-p271:32:32-p272:64:64-i64:64-i128:128-f80:128-n8:16:32:64-S128"
target triple = "x86_64-pc-linux-gnu"

%struct.Vec_Bit_t_ = type { i32, i32, ptr }

; Function Attrs: inlinehint nounwind uwtable
define internal void @Abc_TtCopy(ptr noundef %0, ptr noundef %1, i32 noundef %2, i32 noundef %3) #2 {
  %5 = alloca ptr, align 8
  %6 = alloca ptr, align 8
  %7 = alloca i32, align 4
  %8 = alloca i32, align 4
  %9 = alloca i32, align 4
  store ptr %0, ptr %5, align 8, !tbaa !12
  store ptr %1, ptr %6, align 8, !tbaa !12
  store i32 %2, ptr %7, align 4, !tbaa !8
  store i32 %3, ptr %8, align 4, !tbaa !8
  call void @llvm.lifetime.start.p0(i64 4, ptr %9) #12
  %10 = load i32, ptr %8, align 4, !tbaa !8
  %11 = icmp ne i32 %10, 0
  br i1 %11, label %12, label %32

12:                                               ; preds = %4
  store i32 0, ptr %9, align 4, !tbaa !8
  br label %13

13:                                               ; preds = %28, %12
  %14 = load i32, ptr %9, align 4, !tbaa !8
  %15 = load i32, ptr %7, align 4, !tbaa !8
  %16 = icmp slt i32 %14, %15
  br i1 %16, label %17, label %31

17:                                               ; preds = %13
  %18 = load ptr, ptr %6, align 8, !tbaa !12
  %19 = load i32, ptr %9, align 4, !tbaa !8
  %20 = sext i32 %19 to i64
  %21 = getelementptr inbounds i64, ptr %18, i64 %20
  %22 = load i64, ptr %21, align 8, !tbaa !23
  %23 = xor i64 %22, -1
  %24 = load ptr, ptr %5, align 8, !tbaa !12
  %25 = load i32, ptr %9, align 4, !tbaa !8
  %26 = sext i32 %25 to i64
  %27 = getelementptr inbounds i64, ptr %24, i64 %26
  store i64 %23, ptr %27, align 8, !tbaa !23
  br label %28

28:                                               ; preds = %17
  %29 = load i32, ptr %9, align 4, !tbaa !8
  %30 = add nsw i32 %29, 1
  store i32 %30, ptr %9, align 4, !tbaa !8
  br label %13, !llvm.loop !30

31:                                               ; preds = %13
  br label %51

32:                                               ; preds = %4
  store i32 0, ptr %9, align 4, !tbaa !8
  br label %33

33:                                               ; preds = %47, %32
  %34 = load i32, ptr %9, align 4, !tbaa !8
  %35 = load i32, ptr %7, align 4, !tbaa !8
  %36 = icmp slt i32 %34, %35
  br i1 %36, label %37, label %50

37:                                               ; preds = %33
  %38 = load ptr, ptr %6, align 8, !tbaa !12
  %39 = load i32, ptr %9, align 4, !tbaa !8
  %40 = sext i32 %39 to i64
  %41 = getelementptr inbounds i64, ptr %38, i64 %40
  %42 = load i64, ptr %41, align 8, !tbaa !23
  %43 = load ptr, ptr %5, align 8, !tbaa !12
  %44 = load i32, ptr %9, align 4, !tbaa !8
  %45 = sext i32 %44 to i64
  %46 = getelementptr inbounds i64, ptr %43, i64 %45
  store i64 %42, ptr %46, align 8, !tbaa !23
  br label %47

47:                                               ; preds = %37
  %48 = load i32, ptr %9, align 4, !tbaa !8
  %49 = add nsw i32 %48, 1
  store i32 %49, ptr %9, align 4, !tbaa !8
  br label %33, !llvm.loop !31

50:                                               ; preds = %33
  br label %51

51:                                               ; preds = %50, %31
  call void @llvm.lifetime.end.p0(i64 4, ptr %9) #12
  ret void
}

; Function Attrs: inlinehint nounwind uwtable
define internal i32 @Vec_BitEntry(ptr noundef %0, i32 noundef %1) #2 {
  %3 = alloca ptr, align 8
  %4 = alloca i32, align 4
  store ptr %0, ptr %3, align 8, !tbaa !10
  store i32 %1, ptr %4, align 4, !tbaa !8
  %5 = load ptr, ptr %3, align 8, !tbaa !10
  %6 = getelementptr inbounds nuw %struct.Vec_Bit_t_, ptr %5, i32 0, i32 2
  %7 = load ptr, ptr %6, align 8, !tbaa !17
  %8 = load i32, ptr %4, align 4, !tbaa !8
  %9 = ashr i32 %8, 5
  %10 = sext i32 %9 to i64
  %11 = getelementptr inbounds i32, ptr %7, i64 %10
  %12 = load i32, ptr %11, align 4, !tbaa !8
  %13 = load i32, ptr %4, align 4, !tbaa !8
  %14 = and i32 %13, 31
  %15 = ashr i32 %12, %14
  %16 = and i32 %15, 1
  ret i32 %16
}

; Function Attrs: nounwind uwtable
define i32 @Io_ReadPlaRemoveMarked(ptr noundef %0, i32 noundef %1, i32 noundef %2, ptr noundef %3) #0 {
  %5 = alloca ptr, align 8
  %6 = alloca i32, align 4
  %7 = alloca i32, align 4
  %8 = alloca ptr, align 8
  %9 = alloca i32, align 4
  %10 = alloca i32, align 4
  store ptr %0, ptr %5, align 8, !tbaa !3
  store i32 %1, ptr %6, align 4, !tbaa !8
  store i32 %2, ptr %7, align 4, !tbaa !8
  store ptr %3, ptr %8, align 8, !tbaa !10
  call void @llvm.lifetime.start.p0(i64 4, ptr %9) #12
  call void @llvm.lifetime.start.p0(i64 4, ptr %10) #12
  store i32 0, ptr %10, align 4, !tbaa !8
  store i32 0, ptr %9, align 4, !tbaa !8
  br label %11

11:                                               ; preds = %42, %4
  %12 = load i32, ptr %9, align 4, !tbaa !8
  %13 = load i32, ptr %6, align 4, !tbaa !8
  %14 = icmp slt i32 %12, %13
  br i1 %14, label %15, label %45

15:                                               ; preds = %11
  %16 = load ptr, ptr %8, align 8, !tbaa !10
  %17 = load i32, ptr %9, align 4, !tbaa !8
  %18 = call i32 @Vec_BitEntry(ptr noundef %16, i32 noundef %17)
  %19 = icmp ne i32 %18, 0
  br i1 %19, label %41, label %20

20:                                               ; preds = %15
  %21 = load i32, ptr %10, align 4, !tbaa !8
  %22 = load i32, ptr %9, align 4, !tbaa !8
  %23 = icmp eq i32 %21, %22
  br i1 %23, label %24, label %27

24:                                               ; preds = %20
  %25 = load i32, ptr %10, align 4, !tbaa !8
  %26 = add nsw i32 %25, 1
  store i32 %26, ptr %10, align 4, !tbaa !8
  br label %40

27:                                               ; preds = %20
  %28 = load ptr, ptr %5, align 8, !tbaa !3
  %29 = load i32, ptr %10, align 4, !tbaa !8
  %30 = add nsw i32 %29, 1
  store i32 %30, ptr %10, align 4, !tbaa !8
  %31 = sext i32 %29 to i64
  %32 = getelementptr inbounds ptr, ptr %28, i64 %31
  %33 = load ptr, ptr %32, align 8, !tbaa !12
  %34 = load ptr, ptr %5, align 8, !tbaa !3
  %35 = load i32, ptr %9, align 4, !tbaa !8
  %36 = sext i32 %35 to i64
  %37 = getelementptr inbounds ptr, ptr %34, i64 %36
  %38 = load ptr, ptr %37, align 8, !tbaa !12
  %39 = load i32, ptr %7, align 4, !tbaa !8
  call void @Abc_TtCopy(ptr noundef %33, ptr noundef %38, i32 noundef %39, i32 noundef 0)
  br label %40

40:                                               ; preds = %27, %24
  br label %41

41:                                               ; preds = %40, %15
  br label %42

42:                                               ; preds = %41
  %43 = load i32, ptr %9, align 4, !tbaa !8
  %44 = add nsw i32 %43, 1
  store i32 %44, ptr %9, align 4, !tbaa !8
  br label %11, !llvm.loop !29

45:                                               ; preds = %11
  %46 = load i32, ptr %10, align 4, !tbaa !8
  call void @llvm.lifetime.end.p0(i64 4, ptr %10) #12
  call void @llvm.lifetime.end.p0(i64 4, ptr %9) #12
  ret i32 %46
}