; Function Attrs: nofree norecurse nosync nounwind memory(readwrite, inaccessiblemem: none) uwtable
define i32 @Io_ReadPlaRemoveMarked(ptr noundef readonly captures(none) %0, i32 noundef %1, i32 noundef %2, ptr noundef readonly captures(none) %3) local_unnamed_addr #2 {
  %5 = icmp sgt i32 %1, 0
  br i1 %5, label %.lr.ph, label %._crit_edge

.lr.ph:                                           ; preds = %4
  %6 = getelementptr i8, ptr %3, i64 8
  %.val = load ptr, ptr %6, align 8, !tbaa !10
  %7 = icmp sgt i32 %2, 0
  %wide.trip.count.i = zext nneg i32 %2 to i64
  br i1 %7, label %.lr.ph.split.us.preheader, label %.lr.ph.split

.lr.ph.split.us.preheader:                        ; preds = %.lr.ph
  %wide.trip.count = zext nneg i32 %1 to i64
  br label %.lr.ph.split.us

.lr.ph.split.us:                                  ; preds = %.lr.ph.split.us.preheader, %Abc_TtCopy.exit.us
  %indvars.iv = phi i64 [ 0, %.lr.ph.split.us.preheader ], [ %indvars.iv.next, %Abc_TtCopy.exit.us ]
  %.015.us = phi i32 [ 0, %.lr.ph.split.us.preheader ], [ %.1.us, %Abc_TtCopy.exit.us ]
  %8 = trunc nuw nsw i64 %indvars.iv to i32
  %9 = lshr i64 %indvars.iv, 5
  %10 = and i64 %9, 134217727
  %11 = getelementptr inbounds nuw i32, ptr %.val, i64 %10
  %12 = load i32, ptr %11, align 4, !tbaa !11
  %13 = and i32 %8, 31
  %14 = shl nuw i32 1, %13
  %15 = and i32 %12, %14
  %.not.us = icmp eq i32 %15, 0
  br i1 %.not.us, label %16, label %Abc_TtCopy.exit.us

16:                                               ; preds = %.lr.ph.split.us
  %17 = zext i32 %.015.us to i64
  %18 = icmp eq i64 %indvars.iv, %17
  br i1 %18, label %27, label %.lr.ph.preheader.i.us

.lr.ph.preheader.i.us:                            ; preds = %16
  %19 = sext i32 %.015.us to i64
  %20 = getelementptr inbounds ptr, ptr %0, i64 %19
  %21 = load ptr, ptr %20, align 8, !tbaa !15
  %22 = getelementptr inbounds nuw ptr, ptr %0, i64 %indvars.iv
  %23 = load ptr, ptr %22, align 8, !tbaa !15
  br label %.lr.ph.i.us

.lr.ph.i.us:                                      ; preds = %.lr.ph.i.us, %.lr.ph.preheader.i.us
  %indvars.iv.i.us = phi i64 [ 0, %.lr.ph.preheader.i.us ], [ %indvars.iv.next.i.us, %.lr.ph.i.us ]
  %24 = getelementptr inbounds nuw i64, ptr %23, i64 %indvars.iv.i.us
  %25 = load i64, ptr %24, align 8, !tbaa !17
  %26 = getelementptr inbounds nuw i64, ptr %21, i64 %indvars.iv.i.us
  store i64 %25, ptr %26, align 8, !tbaa !17
  %indvars.iv.next.i.us = add nuw nsw i64 %indvars.iv.i.us, 1
  %exitcond.not.i.us = icmp eq i64 %indvars.iv.next.i.us, %wide.trip.count.i
  br i1 %exitcond.not.i.us, label %Abc_TtCopy.exit.us.loopexit, label %.lr.ph.i.us, !llvm.loop !24

27:                                               ; preds = %16
  %28 = add nsw i32 %.015.us, 1
  br label %Abc_TtCopy.exit.us

Abc_TtCopy.exit.us.loopexit:                      ; preds = %.lr.ph.i.us
  %29 = add nsw i32 %.015.us, 1
  br label %Abc_TtCopy.exit.us

Abc_TtCopy.exit.us:                               ; preds = %Abc_TtCopy.exit.us.loopexit, %27, %.lr.ph.split.us
  %.1.us = phi i32 [ %.015.us, %.lr.ph.split.us ], [ %28, %27 ], [ %29, %Abc_TtCopy.exit.us.loopexit ]
  %indvars.iv.next = add nuw nsw i64 %indvars.iv, 1
  %exitcond18.not = icmp eq i64 %indvars.iv.next, %wide.trip.count
  br i1 %exitcond18.not, label %._crit_edge, label %.lr.ph.split.us, !llvm.loop !25

.lr.ph.split:                                     ; preds = %.lr.ph, %.lr.ph.split
  %.015 = phi i32 [ %.1, %.lr.ph.split ], [ 0, %.lr.ph ]
  %.01314 = phi i32 [ %38, %.lr.ph.split ], [ 0, %.lr.ph ]
  %30 = lshr i32 %.01314, 5
  %31 = zext nneg i32 %30 to i64
  %32 = getelementptr inbounds nuw i32, ptr %.val, i64 %31
  %33 = load i32, ptr %32, align 4, !tbaa !11
  %34 = and i32 %.01314, 31
  %35 = xor i32 %33, -1
  %36 = lshr i32 %35, %34
  %37 = and i32 %36, 1
  %.1 = add nuw nsw i32 %.015, %37
  %38 = add nuw nsw i32 %.01314, 1
  %exitcond.not = icmp eq i32 %38, %1
  br i1 %exitcond.not, label %._crit_edge, label %.lr.ph.split, !llvm.loop !25

._crit_edge:                                      ; preds = %.lr.ph.split, %Abc_TtCopy.exit.us, %4
  %.0.lcssa = phi i32 [ 0, %4 ], [ %.1.us, %Abc_TtCopy.exit.us ], [ %.1, %.lr.ph.split ]
  ret i32 %.0.lcssa
}